((lp0
F0.00014495849609375
aF0.0003631114959716797
aF0.0012240409851074219
aF0.00461888313293457
aF0.01892399787902832
aF0.1004948616027832
aF0.4488959312438965
aF2.494278907775879
aF17.960654973983765
a(lp1
F0.0024619102478027344
aF0.01788616180419922
aF0.14271807670593262
aF1.095046043395996
aF10.49201488494873
aF185.31722402572632
a(lp2
F0.07675504684448242
aF1.0772819519042969
aF17.892652988433838
a(lp3
F0.006289005279541016
aF0.008430957794189453
aF0.02002096176147461
aF0.06731796264648438
aF0.636613130569458
aF4.048370122909546
aF21.66672992706299
aF171.3434898853302
aF2891.4333670139313
a(lp4
F0.0017940998077392578
aF0.0002911090850830078
aF0.003371000289916992
aF0.021291017532348633
aF0.16730403900146484
aF2.9952640533447266
aF50.166630029678345
aF1211.304801940918
atp5
.